target datalayout = "e-m:e-p270:32:32-p271:32:32-p272:64:64-i64:64-i128:128-f80:128-n8:16:32:64-S128"
target triple = "x86_64-pc-linux-gnu"

%struct.b2BodyId = type { i32, i16, i16 }
%struct.b2JointId = type { i32, i16, i16 }
%class.Car = type <{ %struct.b2BodyId, %struct.b2BodyId, %struct.b2BodyId, %struct.b2JointId, %struct.b2JointId, i8, [3 x i8] }>

; Function Attrs: mustprogress uwtable
define dso_local void @_ZN3Car7DespawnEv(ptr noundef nonnull align 4 dereferenceable(41) %0) #6 align 2 {
  %2 = alloca ptr, align 8
  %3 = alloca %struct.b2JointId, align 4
  %4 = alloca %struct.b2JointId, align 4
  %5 = alloca %struct.b2BodyId, align 4
  %6 = alloca %struct.b2BodyId, align 4
  %7 = alloca %struct.b2BodyId, align 4
  store ptr %0, ptr %2, align 8, !tbaa !4
  %8 = load ptr, ptr %2, align 8
  %9 = getelementptr inbounds nuw %class.Car, ptr %8, i32 0, i32 3
  call void @llvm.memcpy.p0.p0.i64(ptr align 4 %3, ptr align 4 %9, i64 8, i1 false), !tbaa.struct !15
  %10 = load i64, ptr %3, align 4
  call void @b2DestroyJoint(i64 %10)
  %11 = getelementptr inbounds nuw %class.Car, ptr %8, i32 0, i32 4
  call void @llvm.memcpy.p0.p0.i64(ptr align 4 %4, ptr align 4 %11, i64 8, i1 false), !tbaa.struct !15
  %12 = load i64, ptr %4, align 4
  call void @b2DestroyJoint(i64 %12)
  %13 = getelementptr inbounds nuw %class.Car, ptr %8, i32 0, i32 1
  call void @llvm.memcpy.p0.p0.i64(ptr align 4 %5, ptr align 4 %13, i64 8, i1 false), !tbaa.struct !15
  %14 = load i64, ptr %5, align 4
  call void @b2DestroyBody(i64 %14)
  %15 = getelementptr inbounds nuw %class.Car, ptr %8, i32 0, i32 2
  call void @llvm.memcpy.p0.p0.i64(ptr align 4 %6, ptr align 4 %15, i64 8, i1 false), !tbaa.struct !15
  %16 = load i64, ptr %6, align 4
  call void @b2DestroyBody(i64 %16)
  %17 = getelementptr inbounds nuw %class.Car, ptr %8, i32 0, i32 0
  call void @llvm.memcpy.p0.p0.i64(ptr align 4 %7, ptr align 4 %17, i64 8, i1 false), !tbaa.struct !15
  %18 = load i64, ptr %7, align 4
  call void @b2DestroyBody(i64 %18)
  %19 = getelementptr inbounds nuw %class.Car, ptr %8, i32 0, i32 5
  store i8 0, ptr %19, align 4, !tbaa !22
  ret void
}